target datalayout = "e-m:e-p270:32:32-p271:32:32-p272:64:64-i64:64-i128:128-f80:128-n8:16:32:64-S128"
target triple = "x86_64-pc-linux-gnu"

%struct.RelationData = type { %struct.RelFileLocator, ptr, i32, i32, i8, i8, i8, i8, i8, i32, i32, i32, i32, ptr, ptr, i32, %struct.LockInfoData, ptr, ptr, ptr, ptr, ptr, i8, ptr, ptr, ptr, ptr, ptr, ptr, i32, ptr, i8, ptr, ptr, i32, i8, i32, ptr, i8, ptr, ptr, ptr, ptr, ptr, ptr, ptr, i32, ptr, ptr, ptr, ptr, ptr, ptr, ptr, ptr, ptr, ptr, ptr, ptr, ptr, ptr, ptr, ptr, ptr, ptr, ptr, i32, i8, ptr }
%struct.RelFileLocator = type { i32, i32, i32 }
%struct.LockInfoData = type { %struct.LockRelId }
%struct.LockRelId = type { i32, i32 }
%struct.BrinBuildState = type { ptr, double, double, i32, i32, i32, i32, ptr, ptr, ptr, ptr, i64, ptr, ptr, i32, ptr }
%struct.ItemPointerData = type { %struct.BlockIdData, i16 }
%struct.BlockIdData = type { i16, i16 }
%struct.BrinDesc = type { ptr, ptr, ptr, ptr, i32, [0 x ptr] }
%struct.TupleDescData = type { i32, i32, i32, i32, ptr, [0 x %struct.CompactAttribute] }
%struct.CompactAttribute = type { i32, i16, i8, i8, i8, i8, i8, i8, i8 }
%struct.BrinMemTuple = type { i8, i8, i32, ptr, ptr, ptr, ptr, [0 x %struct.BrinValues] }
%struct.BrinValues = type { i16, i8, i8, ptr, i64, ptr, ptr }
%struct.BrinOpcInfo = type { i16, i8, ptr, [0 x ptr] }

; Function Attrs: inlinehint nounwind uwtable
define internal i32 @BlockIdGetBlockNumber(ptr noundef %0) #2 {
  %2 = alloca ptr, align 8
  store ptr %0, ptr %2, align 8
  %3 = load ptr, ptr %2, align 8
  %4 = getelementptr inbounds nuw %struct.BlockIdData, ptr %3, i32 0, i32 0
  %5 = load i16, ptr %4, align 2
  %6 = zext i16 %5 to i32
  %7 = shl i32 %6, 16
  %8 = load ptr, ptr %2, align 8
  %9 = getelementptr inbounds nuw %struct.BlockIdData, ptr %8, i32 0, i32 1
  %10 = load i16, ptr %9, align 2
  %11 = zext i16 %10 to i32
  %12 = or i32 %7, %11
  ret i32 %12
}

; Function Attrs: inlinehint nounwind uwtable
define internal zeroext i1 @DatumGetBool(i64 noundef %0) #2 {
  %2 = alloca i64, align 8
  store i64 %0, ptr %2, align 8
  %3 = load i64, ptr %2, align 8
  %4 = icmp ne i64 %3, 0
  ret i1 %4
}

; Function Attrs: inlinehint nounwind uwtable
define internal i64 @PointerGetDatum(ptr noundef %0) #2 {
  %2 = alloca ptr, align 8
  store ptr %0, ptr %2, align 8
  %3 = load ptr, ptr %2, align 8
  %4 = ptrtoint ptr %3 to i64
  ret i64 %4
}

; Function Attrs: inlinehint nounwind uwtable
define internal i32 @ItemPointerGetBlockNumberNoCheck(ptr noundef %0) #2 {
  %2 = alloca ptr, align 8
  store ptr %0, ptr %2, align 8
  %3 = load ptr, ptr %2, align 8
  %4 = getelementptr inbounds nuw %struct.ItemPointerData, ptr %3, i32 0, i32 0
  %5 = call i32 @BlockIdGetBlockNumber(ptr noundef %4)
  ret i32 %5
}

; Function Attrs: nounwind uwtable
define internal zeroext i1 @add_values_to_range(ptr noundef %0, ptr noundef %1, ptr noundef %2, ptr noundef %3, ptr noundef %4) #0 {
  %6 = alloca ptr, align 8
  %7 = alloca ptr, align 8
  %8 = alloca ptr, align 8
  %9 = alloca ptr, align 8
  %10 = alloca ptr, align 8
  %11 = alloca i32, align 4
  %12 = alloca i8, align 1
  %13 = alloca i64, align 8
  %14 = alloca ptr, align 8
  %15 = alloca ptr, align 8
  %16 = alloca i8, align 1
  %17 = alloca i32, align 4
  store ptr %0, ptr %6, align 8
  store ptr %1, ptr %7, align 8
  store ptr %2, ptr %8, align 8
  store ptr %3, ptr %9, align 8
  store ptr %4, ptr %10, align 8
  call void @llvm.lifetime.start.p0(i64 4, ptr %11) #9
  call void @llvm.lifetime.start.p0(i64 1, ptr %12) #9
  %18 = load ptr, ptr %8, align 8
  %19 = getelementptr inbounds nuw %struct.BrinMemTuple, ptr %18, i32 0, i32 1
  %20 = load i8, ptr %19, align 1, !range !4, !noundef !5
  %21 = trunc i8 %20 to i1
  %22 = zext i1 %21 to i8
  store i8 %22, ptr %12, align 1
  store i32 0, ptr %11, align 4
  br label %23

23:                                               ; preds = %140, %5
  %24 = load i32, ptr %11, align 4
  %25 = load ptr, ptr %7, align 8
  %26 = getelementptr inbounds nuw %struct.BrinDesc, ptr %25, i32 0, i32 2
  %27 = load ptr, ptr %26, align 8
  %28 = getelementptr inbounds nuw %struct.TupleDescData, ptr %27, i32 0, i32 0
  %29 = load i32, ptr %28, align 8
  %30 = icmp slt i32 %24, %29
  br i1 %30, label %31, label %143

31:                                               ; preds = %23
  call void @llvm.lifetime.start.p0(i64 8, ptr %13) #9
  call void @llvm.lifetime.start.p0(i64 8, ptr %14) #9
  call void @llvm.lifetime.start.p0(i64 8, ptr %15) #9
  call void @llvm.lifetime.start.p0(i64 1, ptr %16) #9
  %32 = load ptr, ptr %8, align 8
  %33 = getelementptr inbounds nuw %struct.BrinMemTuple, ptr %32, i32 0, i32 7
  %34 = load i32, ptr %11, align 4
  %35 = sext i32 %34 to i64
  %36 = getelementptr inbounds [0 x %struct.BrinValues], ptr %33, i64 0, i64 %35
  store ptr %36, ptr %14, align 8
  %37 = load ptr, ptr %8, align 8
  %38 = getelementptr inbounds nuw %struct.BrinMemTuple, ptr %37, i32 0, i32 1
  %39 = load i8, ptr %38, align 1, !range !4, !noundef !5
  %40 = trunc i8 %39 to i1
  br i1 %40, label %53, label %41

41:                                               ; preds = %31
  %42 = load ptr, ptr %14, align 8
  %43 = getelementptr inbounds nuw %struct.BrinValues, ptr %42, i32 0, i32 1
  %44 = load i8, ptr %43, align 2, !range !4, !noundef !5
  %45 = trunc i8 %44 to i1
  br i1 %45, label %51, label %46

46:                                               ; preds = %41
  %47 = load ptr, ptr %14, align 8
  %48 = getelementptr inbounds nuw %struct.BrinValues, ptr %47, i32 0, i32 2
  %49 = load i8, ptr %48, align 1, !range !4, !noundef !5
  %50 = trunc i8 %49 to i1
  br label %51

51:                                               ; preds = %46, %41
  %52 = phi i1 [ true, %41 ], [ %50, %46 ]
  br label %53

53:                                               ; preds = %51, %31
  %54 = phi i1 [ false, %31 ], [ %52, %51 ]
  %55 = zext i1 %54 to i8
  store i8 %55, ptr %16, align 1
  %56 = load ptr, ptr %7, align 8
  %57 = getelementptr inbounds nuw %struct.BrinDesc, ptr %56, i32 0, i32 5
  %58 = load i32, ptr %11, align 4
  %59 = sext i32 %58 to i64
  %60 = getelementptr inbounds [0 x ptr], ptr %57, i64 0, i64 %59
  %61 = load ptr, ptr %60, align 8
  %62 = getelementptr inbounds nuw %struct.BrinOpcInfo, ptr %61, i32 0, i32 1
  %63 = load i8, ptr %62, align 2, !range !4, !noundef !5
  %64 = trunc i8 %63 to i1
  br i1 %64, label %65, label %81

65:                                               ; preds = %53
  %66 = load ptr, ptr %10, align 8
  %67 = load i32, ptr %11, align 4
  %68 = sext i32 %67 to i64
  %69 = getelementptr inbounds i8, ptr %66, i64 %68
  %70 = load i8, ptr %69, align 1, !range !4, !noundef !5
  %71 = trunc i8 %70 to i1
  br i1 %71, label %72, label %81

72:                                               ; preds = %65
  %73 = load ptr, ptr %14, align 8
  %74 = getelementptr inbounds nuw %struct.BrinValues, ptr %73, i32 0, i32 1
  %75 = load i8, ptr %74, align 2, !range !4, !noundef !5
  %76 = trunc i8 %75 to i1
  br i1 %76, label %80, label %77

77:                                               ; preds = %72
  %78 = load ptr, ptr %14, align 8
  %79 = getelementptr inbounds nuw %struct.BrinValues, ptr %78, i32 0, i32 1
  store i8 1, ptr %79, align 2
  store i8 1, ptr %12, align 1
  br label %80

80:                                               ; preds = %77, %72
  store i32 4, ptr %17, align 4
  br label %137

81:                                               ; preds = %65, %53
  %82 = load ptr, ptr %6, align 8
  %83 = load i32, ptr %11, align 4
  %84 = add i32 %83, 1
  %85 = trunc i32 %84 to i16
  %86 = call ptr @index_getprocinfo(ptr noundef %82, i16 noundef signext %85, i16 noundef zeroext 2)
  store ptr %86, ptr %15, align 8
  %87 = load ptr, ptr %15, align 8
  %88 = load ptr, ptr %6, align 8
  %89 = getelementptr inbounds nuw %struct.RelationData, ptr %88, i32 0, i32 62
  %90 = load ptr, ptr %89, align 8
  %91 = load i32, ptr %11, align 4
  %92 = sext i32 %91 to i64
  %93 = getelementptr inbounds i32, ptr %90, i64 %92
  %94 = load i32, ptr %93, align 4
  %95 = load ptr, ptr %7, align 8
  %96 = call i64 @PointerGetDatum(ptr noundef %95)
  %97 = load ptr, ptr %14, align 8
  %98 = call i64 @PointerGetDatum(ptr noundef %97)
  %99 = load ptr, ptr %9, align 8
  %100 = load i32, ptr %11, align 4
  %101 = sext i32 %100 to i64
  %102 = getelementptr inbounds i64, ptr %99, i64 %101
  %103 = load i64, ptr %102, align 8
  %104 = load ptr, ptr %10, align 8
  %105 = load i32, ptr %11, align 4
  %106 = sext i32 %105 to i64
  %107 = getelementptr inbounds i8, ptr %104, i64 %106
  %108 = load i8, ptr %107, align 1, !range !4, !noundef !5
  %109 = trunc i8 %108 to i1
  %110 = zext i1 %109 to i64
  %111 = call i64 @FunctionCall4Coll(ptr noundef %87, i32 noundef %94, i64 noundef %96, i64 noundef %98, i64 noundef %103, i64 noundef %110)
  store i64 %111, ptr %13, align 8
  %112 = load i64, ptr %13, align 8
  %113 = call zeroext i1 @DatumGetBool(i64 noundef %112)
  %114 = zext i1 %113 to i32
  %115 = load i8, ptr %12, align 1, !range !4, !noundef !5
  %116 = trunc i8 %115 to i1
  %117 = zext i1 %116 to i32
  %118 = or i32 %117, %114
  %119 = icmp ne i32 %118, 0
  %120 = zext i1 %119 to i8
  store i8 %120, ptr %12, align 1
  %121 = load i8, ptr %16, align 1, !range !4, !noundef !5
  %122 = trunc i8 %121 to i1
  br i1 %122, label %123, label %136

123:                                              ; preds = %81
  %124 = load ptr, ptr %14, align 8
  %125 = getelementptr inbounds nuw %struct.BrinValues, ptr %124, i32 0, i32 1
  %126 = load i8, ptr %125, align 2, !range !4, !noundef !5
  %127 = trunc i8 %126 to i1
  br i1 %127, label %136, label %128

128:                                              ; preds = %123
  %129 = load ptr, ptr %14, align 8
  %130 = getelementptr inbounds nuw %struct.BrinValues, ptr %129, i32 0, i32 2
  %131 = load i8, ptr %130, align 1, !range !4, !noundef !5
  %132 = trunc i8 %131 to i1
  br i1 %132, label %136, label %133

133:                                              ; preds = %128
  %134 = load ptr, ptr %14, align 8
  %135 = getelementptr inbounds nuw %struct.BrinValues, ptr %134, i32 0, i32 1
  store i8 1, ptr %135, align 2
  br label %136

136:                                              ; preds = %133, %128, %123, %81
  store i32 0, ptr %17, align 4
  br label %137

137:                                              ; preds = %136, %80
  call void @llvm.lifetime.end.p0(i64 1, ptr %16) #9
  call void @llvm.lifetime.end.p0(i64 8, ptr %15) #9
  call void @llvm.lifetime.end.p0(i64 8, ptr %14) #9
  call void @llvm.lifetime.end.p0(i64 8, ptr %13) #9
  %138 = load i32, ptr %17, align 4
  switch i32 %138, label %148 [
    i32 0, label %139
    i32 4, label %140
  ]

139:                                              ; preds = %137
  br label %140

140:                                              ; preds = %139, %137
  %141 = load i32, ptr %11, align 4
  %142 = add i32 %141, 1
  store i32 %142, ptr %11, align 4
  br label %23, !llvm.loop !13

143:                                              ; preds = %23
  %144 = load ptr, ptr %8, align 8
  %145 = getelementptr inbounds nuw %struct.BrinMemTuple, ptr %144, i32 0, i32 1
  store i8 0, ptr %145, align 1
  %146 = load i8, ptr %12, align 1, !range !4, !noundef !5
  %147 = trunc i8 %146 to i1
  store i32 1, ptr %17, align 4
  call void @llvm.lifetime.end.p0(i64 1, ptr %12) #9
  call void @llvm.lifetime.end.p0(i64 4, ptr %11) #9
  ret i1 %147

148:                                              ; preds = %137
  unreachable
}

; Function Attrs: nounwind uwtable
define internal void @form_and_insert_tuple(ptr noundef %0) #0 {
  %2 = alloca ptr, align 8
  %3 = alloca ptr, align 8
  %4 = alloca i64, align 8
  store ptr %0, ptr %2, align 8
  call void @llvm.lifetime.start.p0(i64 8, ptr %3) #9
  call void @llvm.lifetime.start.p0(i64 8, ptr %4) #9
  %5 = load ptr, ptr %2, align 8
  %6 = getelementptr inbounds nuw %struct.BrinBuildState, ptr %5, i32 0, i32 8
  %7 = load ptr, ptr %6, align 8
  %8 = load ptr, ptr %2, align 8
  %9 = getelementptr inbounds nuw %struct.BrinBuildState, ptr %8, i32 0, i32 5
  %10 = load i32, ptr %9, align 8
  %11 = load ptr, ptr %2, align 8
  %12 = getelementptr inbounds nuw %struct.BrinBuildState, ptr %11, i32 0, i32 9
  %13 = load ptr, ptr %12, align 8
  %14 = call ptr @brin_form_tuple(ptr noundef %7, i32 noundef %10, ptr noundef %13, ptr noundef %4)
  store ptr %14, ptr %3, align 8
  %15 = load ptr, ptr %2, align 8
  %16 = getelementptr inbounds nuw %struct.BrinBuildState, ptr %15, i32 0, i32 0
  %17 = load ptr, ptr %16, align 8
  %18 = load ptr, ptr %2, align 8
  %19 = getelementptr inbounds nuw %struct.BrinBuildState, ptr %18, i32 0, i32 4
  %20 = load i32, ptr %19, align 4
  %21 = load ptr, ptr %2, align 8
  %22 = getelementptr inbounds nuw %struct.BrinBuildState, ptr %21, i32 0, i32 7
  %23 = load ptr, ptr %22, align 8
  %24 = load ptr, ptr %2, align 8
  %25 = getelementptr inbounds nuw %struct.BrinBuildState, ptr %24, i32 0, i32 3
  %26 = load ptr, ptr %2, align 8
  %27 = getelementptr inbounds nuw %struct.BrinBuildState, ptr %26, i32 0, i32 5
  %28 = load i32, ptr %27, align 8
  %29 = load ptr, ptr %3, align 8
  %30 = load i64, ptr %4, align 8
  %31 = call zeroext i16 @brin_doinsert(ptr noundef %17, i32 noundef %20, ptr noundef %23, ptr noundef %25, i32 noundef %28, ptr noundef %29, i64 noundef %30)
  %32 = load ptr, ptr %2, align 8
  %33 = getelementptr inbounds nuw %struct.BrinBuildState, ptr %32, i32 0, i32 1
  %34 = load double, ptr %33, align 8
  %35 = fadd double %34, 1.000000e+00
  store double %35, ptr %33, align 8
  %36 = load ptr, ptr %3, align 8
  call void @pfree(ptr noundef %36)
  call void @llvm.lifetime.end.p0(i64 8, ptr %4) #9
  call void @llvm.lifetime.end.p0(i64 8, ptr %3) #9
  ret void
}

; Function Attrs: inlinehint nounwind uwtable
define internal i32 @ItemPointerGetBlockNumber(ptr noundef %0) #2 {
  %2 = alloca ptr, align 8
  store ptr %0, ptr %2, align 8
  %3 = load ptr, ptr %2, align 8
  %4 = call i32 @ItemPointerGetBlockNumberNoCheck(ptr noundef %3)
  ret i32 %4
}

; Function Attrs: nounwind uwtable
define internal void @brinbuildCallback(ptr noundef %0, ptr noundef %1, ptr noundef %2, ptr noundef %3, i1 noundef zeroext %4, ptr noundef %5) #0 {
  %7 = alloca ptr, align 8
  %8 = alloca ptr, align 8
  %9 = alloca ptr, align 8
  %10 = alloca ptr, align 8
  %11 = alloca i8, align 1
  %12 = alloca ptr, align 8
  %13 = alloca ptr, align 8
  %14 = alloca i32, align 4
  store ptr %0, ptr %7, align 8
  store ptr %1, ptr %8, align 8
  store ptr %2, ptr %9, align 8
  store ptr %3, ptr %10, align 8
  %15 = zext i1 %4 to i8
  store i8 %15, ptr %11, align 1
  store ptr %5, ptr %12, align 8
  call void @llvm.lifetime.start.p0(i64 8, ptr %13) #9
  %16 = load ptr, ptr %12, align 8
  store ptr %16, ptr %13, align 8
  call void @llvm.lifetime.start.p0(i64 4, ptr %14) #9
  %17 = load ptr, ptr %8, align 8
  %18 = call i32 @ItemPointerGetBlockNumber(ptr noundef %17)
  store i32 %18, ptr %14, align 4
  br label %19

19:                                               ; preds = %30, %6
  %20 = load i32, ptr %14, align 4
  %21 = load ptr, ptr %13, align 8
  %22 = getelementptr inbounds nuw %struct.BrinBuildState, ptr %21, i32 0, i32 5
  %23 = load i32, ptr %22, align 8
  %24 = load ptr, ptr %13, align 8
  %25 = getelementptr inbounds nuw %struct.BrinBuildState, ptr %24, i32 0, i32 4
  %26 = load i32, ptr %25, align 4
  %27 = add i32 %23, %26
  %28 = sub i32 %27, 1
  %29 = icmp ugt i32 %20, %28
  br i1 %29, label %30, label %46

30:                                               ; preds = %19
  %31 = load ptr, ptr %13, align 8
  call void @form_and_insert_tuple(ptr noundef %31)
  %32 = load ptr, ptr %13, align 8
  %33 = getelementptr inbounds nuw %struct.BrinBuildState, ptr %32, i32 0, i32 4
  %34 = load i32, ptr %33, align 4
  %35 = load ptr, ptr %13, align 8
  %36 = getelementptr inbounds nuw %struct.BrinBuildState, ptr %35, i32 0, i32 5
  %37 = load i32, ptr %36, align 8
  %38 = add i32 %37, %34
  store i32 %38, ptr %36, align 8
  %39 = load ptr, ptr %13, align 8
  %40 = getelementptr inbounds nuw %struct.BrinBuildState, ptr %39, i32 0, i32 9
  %41 = load ptr, ptr %40, align 8
  %42 = load ptr, ptr %13, align 8
  %43 = getelementptr inbounds nuw %struct.BrinBuildState, ptr %42, i32 0, i32 8
  %44 = load ptr, ptr %43, align 8
  %45 = call ptr @brin_memtuple_initialize(ptr noundef %41, ptr noundef %44)
  br label %19, !llvm.loop !20

46:                                               ; preds = %19
  %47 = load ptr, ptr %7, align 8
  %48 = load ptr, ptr %13, align 8
  %49 = getelementptr inbounds nuw %struct.BrinBuildState, ptr %48, i32 0, i32 8
  %50 = load ptr, ptr %49, align 8
  %51 = load ptr, ptr %13, align 8
  %52 = getelementptr inbounds nuw %struct.BrinBuildState, ptr %51, i32 0, i32 9
  %53 = load ptr, ptr %52, align 8
  %54 = load ptr, ptr %9, align 8
  %55 = load ptr, ptr %10, align 8
  %56 = call zeroext i1 @add_values_to_range(ptr noundef %47, ptr noundef %50, ptr noundef %53, ptr noundef %54, ptr noundef %55)
  call void @llvm.lifetime.end.p0(i64 4, ptr %14) #9
  call void @llvm.lifetime.end.p0(i64 8, ptr %13) #9
  ret void
}