; Function Attrs: nounwind uwtable
define internal void @brinbuildCallback(ptr noundef %0, ptr noundef readonly captures(none) %1, ptr noundef readonly captures(none) %2, ptr noundef readonly captures(none) %3, i1 zeroext %4, ptr noundef %5) #0 {
  %7 = alloca i64, align 8
  %.val = load i16, ptr %1, align 2
  %8 = getelementptr i8, ptr %1, i64 2
  %.val14 = load i16, ptr %8, align 2
  %9 = zext i16 %.val to i32
  %10 = shl nuw i32 %9, 16
  %11 = zext i16 %.val14 to i32
  %12 = or disjoint i32 %10, %11
  %13 = getelementptr inbounds nuw i8, ptr %5, i64 32
  %14 = getelementptr inbounds nuw i8, ptr %5, i64 28
  %15 = load i32, ptr %13, align 8
  %16 = load i32, ptr %14, align 4
  %17 = add i32 %15, -1
  %18 = add i32 %17, %16
  %19 = icmp ugt i32 %12, %18
  br i1 %19, label %.lr.ph, label %._crit_edge

.lr.ph:                                           ; preds = %6
  %20 = getelementptr inbounds nuw i8, ptr %5, i64 48
  %21 = getelementptr inbounds nuw i8, ptr %5, i64 56
  %22 = getelementptr inbounds nuw i8, ptr %5, i64 40
  %23 = getelementptr inbounds nuw i8, ptr %5, i64 24
  %24 = getelementptr inbounds nuw i8, ptr %5, i64 8
  br label %25

25:                                               ; preds = %.lr.ph, %25
  %26 = phi i32 [ %15, %.lr.ph ], [ %44, %25 ]
  call void @llvm.lifetime.start.p0(i64 8, ptr nonnull %7) #10
  %27 = load ptr, ptr %20, align 8
  %28 = load ptr, ptr %21, align 8
  %29 = call ptr @brin_form_tuple(ptr noundef %27, i32 noundef %26, ptr noundef %28, ptr noundef nonnull %7) #10
  %30 = load ptr, ptr %5, align 8
  %31 = load i32, ptr %14, align 4
  %32 = load ptr, ptr %22, align 8
  %33 = load i32, ptr %13, align 8
  %34 = load i64, ptr %7, align 8
  %35 = call zeroext i16 @brin_doinsert(ptr noundef %30, i32 noundef %31, ptr noundef %32, ptr noundef nonnull %23, i32 noundef %33, ptr noundef %29, i64 noundef %34) #10
  %36 = load double, ptr %24, align 8
  %37 = fadd double %36, 1.000000e+00
  store double %37, ptr %24, align 8
  call void @pfree(ptr noundef %29) #10
  call void @llvm.lifetime.end.p0(i64 8, ptr nonnull %7) #10
  %38 = load i32, ptr %14, align 4
  %39 = load i32, ptr %13, align 8
  %40 = add i32 %39, %38
  store i32 %40, ptr %13, align 8
  %41 = load ptr, ptr %21, align 8
  %42 = load ptr, ptr %20, align 8
  %43 = call ptr @brin_memtuple_initialize(ptr noundef %41, ptr noundef %42) #10
  %44 = load i32, ptr %13, align 8
  %45 = load i32, ptr %14, align 4
  %46 = add i32 %44, -1
  %47 = add i32 %46, %45
  %48 = icmp ugt i32 %12, %47
  br i1 %48, label %25, label %._crit_edge, !llvm.loop !27

._crit_edge:                                      ; preds = %25, %6
  %49 = getelementptr inbounds nuw i8, ptr %5, i64 48
  %50 = load ptr, ptr %49, align 8
  %51 = getelementptr inbounds nuw i8, ptr %5, i64 56
  %52 = load ptr, ptr %51, align 8
  %53 = getelementptr inbounds nuw i8, ptr %52, i64 1
  %54 = getelementptr inbounds nuw i8, ptr %50, i64 16
  %55 = load ptr, ptr %54, align 8
  %56 = load i32, ptr %55, align 8
  %57 = icmp sgt i32 %56, 0
  br i1 %57, label %.lr.ph.i, label %add_values_to_range.exit

.lr.ph.i:                                         ; preds = %._crit_edge
  %58 = getelementptr inbounds nuw i8, ptr %52, i64 40
  %59 = getelementptr inbounds nuw i8, ptr %50, i64 40
  %60 = getelementptr inbounds nuw i8, ptr %0, i64 440
  %61 = ptrtoint ptr %50 to i64
  br label %62

62:                                               ; preds = %113, %.lr.ph.i
  %indvars.iv.i = phi i64 [ 0, %.lr.ph.i ], [ %indvars.iv.next.i, %113 ]
  %63 = getelementptr inbounds nuw [0 x %struct.BrinValues], ptr %58, i64 0, i64 %indvars.iv.i
  %64 = load i8, ptr %53, align 1, !range !4, !noundef !5
  %65 = trunc nuw i8 %64 to i1
  br i1 %65, label %74, label %66

66:                                               ; preds = %62
  %67 = getelementptr inbounds nuw i8, ptr %63, i64 2
  %68 = load i8, ptr %67, align 2, !range !4, !noundef !5
  %69 = trunc nuw i8 %68 to i1
  br i1 %69, label %74, label %70

70:                                               ; preds = %66
  %71 = getelementptr inbounds nuw i8, ptr %63, i64 3
  %72 = load i8, ptr %71, align 1, !range !4, !noundef !5
  %73 = trunc nuw i8 %72 to i1
  br label %74

74:                                               ; preds = %70, %66, %62
  %75 = phi i1 [ false, %62 ], [ true, %66 ], [ %73, %70 ]
  %76 = getelementptr inbounds nuw [0 x ptr], ptr %59, i64 0, i64 %indvars.iv.i
  %77 = load ptr, ptr %76, align 8
  %78 = getelementptr inbounds nuw i8, ptr %77, i64 2
  %79 = load i8, ptr %78, align 2, !range !4, !noundef !5
  %80 = trunc nuw i8 %79 to i1
  br i1 %80, label %81, label %90

81:                                               ; preds = %74
  %82 = getelementptr inbounds nuw i8, ptr %3, i64 %indvars.iv.i
  %83 = load i8, ptr %82, align 1, !range !4, !noundef !5
  %84 = trunc nuw i8 %83 to i1
  br i1 %84, label %85, label %90

85:                                               ; preds = %81
  %86 = getelementptr inbounds nuw i8, ptr %63, i64 2
  %87 = load i8, ptr %86, align 2, !range !4, !noundef !5
  %88 = trunc nuw i8 %87 to i1
  br i1 %88, label %113, label %89

89:                                               ; preds = %85
  store i8 1, ptr %86, align 2
  br label %113

90:                                               ; preds = %81, %74
  %91 = trunc i64 %indvars.iv.i to i16
  %92 = add i16 %91, 1
  %93 = call ptr @index_getprocinfo(ptr noundef %0, i16 noundef signext %92, i16 noundef zeroext 2) #10
  %94 = load ptr, ptr %60, align 8
  %95 = getelementptr inbounds nuw i32, ptr %94, i64 %indvars.iv.i
  %96 = load i32, ptr %95, align 4
  %97 = ptrtoint ptr %63 to i64
  %98 = getelementptr inbounds nuw i64, ptr %2, i64 %indvars.iv.i
  %99 = load i64, ptr %98, align 8
  %100 = getelementptr inbounds nuw i8, ptr %3, i64 %indvars.iv.i
  %101 = load i8, ptr %100, align 1, !range !4, !noundef !5
  %102 = zext nneg i8 %101 to i64
  %103 = call i64 @FunctionCall4Coll(ptr noundef %93, i32 noundef %96, i64 noundef %61, i64 noundef %97, i64 noundef %99, i64 noundef %102) #10
  br i1 %75, label %104, label %113

104:                                              ; preds = %90
  %105 = getelementptr inbounds nuw i8, ptr %63, i64 2
  %106 = load i8, ptr %105, align 2, !range !4, !noundef !5
  %107 = trunc nuw i8 %106 to i1
  br i1 %107, label %113, label %108

108:                                              ; preds = %104
  %109 = getelementptr inbounds nuw i8, ptr %63, i64 3
  %110 = load i8, ptr %109, align 1, !range !4, !noundef !5
  %111 = trunc nuw i8 %110 to i1
  br i1 %111, label %113, label %112

112:                                              ; preds = %108
  store i8 1, ptr %105, align 2
  br label %113

113:                                              ; preds = %112, %108, %104, %90, %89, %85
  %indvars.iv.next.i = add nuw nsw i64 %indvars.iv.i, 1
  %114 = load ptr, ptr %54, align 8
  %115 = load i32, ptr %114, align 8
  %116 = sext i32 %115 to i64
  %117 = icmp slt i64 %indvars.iv.next.i, %116
  br i1 %117, label %62, label %add_values_to_range.exit, !llvm.loop !14

add_values_to_range.exit:                         ; preds = %113, %._crit_edge
  store i8 0, ptr %53, align 1
  ret void
}